; Function Attrs: nounwind uwtable
define ptr @l_Lean_Elab_PartialFixpoint_isOptionFixpoint___lambda__2(ptr noundef %0, ptr readnone captures(none) %1) local_unnamed_addr #0 {
  %3 = tail call ptr @lean_expr_dbg_to_string(ptr noundef %0) #6
  %4 = load ptr, ptr @l_Lean_Elab_PartialFixpoint_isOptionFixpoint___lambda__2___closed__1, align 8, !tbaa !9
  %5 = tail call ptr @lean_string_append(ptr noundef %4, ptr noundef %3) #6
  %6 = ptrtoint ptr %3 to i64
  %7 = and i64 %6, 1
  %.not = icmp eq i64 %7, 0
  br i1 %.not, label %8, label %lean_dec.exit14

8:                                                ; preds = %2
  %9 = load i32, ptr %3, align 4, !tbaa !4
  %10 = icmp sgt i32 %9, 1
  br i1 %10, label %11, label %13, !prof !14

11:                                               ; preds = %8
  %12 = add nsw i32 %9, -1
  store i32 %12, ptr %3, align 4, !tbaa !4
  br label %lean_dec.exit14

13:                                               ; preds = %8
  %.not.i = icmp eq i32 %9, 0
  br i1 %.not.i, label %lean_dec.exit14, label %14

14:                                               ; preds = %13
  tail call void @lean_dec_ref_cold(ptr noundef nonnull %3) #6
  br label %lean_dec.exit14

lean_dec.exit14:                                  ; preds = %14, %13, %11, %2
  %15 = load ptr, ptr @l_Lean_Elab_PartialFixpoint_mkAdmProj___lambda__2___closed__3, align 8, !tbaa !9
  %16 = tail call ptr @lean_string_append(ptr noundef %5, ptr noundef %15) #6
  %17 = load ptr, ptr @l_Lean_Elab_PartialFixpoint_mkAdmProj___closed__6, align 8, !tbaa !9
  %18 = load ptr, ptr @l_Lean_Elab_PartialFixpoint_isOptionFixpoint___lambda__2___closed__2, align 8, !tbaa !9
  %19 = tail call ptr @l___private_Init_Util_0__mkPanicMessageWithDecl(ptr noundef %17, ptr noundef %18, ptr noundef nonnull inttoptr (i64 557 to ptr), ptr noundef nonnull inttoptr (i64 97 to ptr), ptr noundef %16) #6
  %20 = ptrtoint ptr %16 to i64
  %21 = and i64 %20, 1
  %.not17 = icmp eq i64 %21, 0
  br i1 %.not17, label %22, label %lean_dec.exit

22:                                               ; preds = %lean_dec.exit14
  %23 = load i32, ptr %16, align 4, !tbaa !4
  %24 = icmp sgt i32 %23, 1
  br i1 %24, label %25, label %27, !prof !14

25:                                               ; preds = %22
  %26 = add nsw i32 %23, -1
  store i32 %26, ptr %16, align 4, !tbaa !4
  br label %lean_dec.exit

27:                                               ; preds = %22
  %.not.i15 = icmp eq i32 %23, 0
  br i1 %.not.i15, label %lean_dec.exit, label %28

28:                                               ; preds = %27
  tail call void @lean_dec_ref_cold(ptr noundef nonnull %16) #6
  br label %lean_dec.exit

lean_dec.exit:                                    ; preds = %28, %27, %25, %lean_dec.exit14
  %29 = tail call ptr @lean_panic_fn(ptr noundef nonnull inttoptr (i64 1 to ptr), ptr noundef %19) #6
  ret ptr %29
}